; Function Attrs: mustprogress uwtable
define noundef zeroext i1 @_ZN6google8protobuf2io15FileInputStream22CopyingFileInputStream5CloseEv(ptr nocapture noundef nonnull align 8 dereferenceable(21) %0) local_unnamed_addr #3 align 2 personality ptr @__gxx_personality_v0 {
  %2 = alloca %"class.google::protobuf::internal::LogMessage", align 8
  %3 = alloca %"class.google::protobuf::internal::LogFinisher", align 1
  %4 = getelementptr inbounds i8, ptr %0, i64 13
  %5 = load i8, ptr %4, align 1
  %6 = trunc i8 %5 to i1
  br i1 %6, label %7, label %.critedge

7:                                                ; preds = %1
  call void @_ZN6google8protobuf8internal10LogMessageC1ENS0_8LogLevelEPKci(ptr noundef nonnull align 8 dereferenceable(56) %2, i32 noundef 3, ptr noundef nonnull @.str, i32 noundef 117)
  %8 = invoke noundef nonnull align 8 dereferenceable(56) ptr @_ZN6google8protobuf8internal10LogMessagelsEPKc(ptr noundef nonnull align 8 dereferenceable(56) %2, ptr noundef nonnull @.str.2)
          to label %9 unwind label %22

9:                                                ; preds = %7
  invoke void @_ZN6google8protobuf8internal11LogFinisheraSERNS1_10LogMessageE(ptr noundef nonnull align 1 dereferenceable(1) %3, ptr noundef nonnull align 8 dereferenceable(56) %8)
          to label %10 unwind label %22

10:                                               ; preds = %9
  call void @_ZN6google8protobuf8internal10LogMessageD1Ev(ptr noundef nonnull align 8 dereferenceable(56) %2) #12
  br label %.critedge

.critedge:                                        ; preds = %1, %10
  store i8 1, ptr %4, align 1
  %11 = getelementptr inbounds i8, ptr %0, i64 8
  %12 = load i32, ptr %11, align 8
  br label %13

13:                                               ; preds = %16, %.critedge
  %14 = call i32 @close(i32 noundef %12)
  %15 = icmp slt i32 %14, 0
  br i1 %15, label %16, label %_ZN6google8protobuf2io12_GLOBAL__N_114close_no_eintrEi.exit

16:                                               ; preds = %13
  %17 = tail call ptr @__errno_location() #13
  %18 = load i32, ptr %17, align 4
  %19 = icmp eq i32 %18, 4
  br i1 %19, label %13, label %_ZN6google8protobuf2io12_GLOBAL__N_114close_no_eintrEi.exit.thread, !llvm.loop !4

_ZN6google8protobuf2io12_GLOBAL__N_114close_no_eintrEi.exit: ; preds = %13
  %.not = icmp eq i32 %14, 0
  br i1 %.not, label %24, label %_ZN6google8protobuf2io12_GLOBAL__N_114close_no_eintrEi.exit._ZN6google8protobuf2io12_GLOBAL__N_114close_no_eintrEi.exit.thread_crit_edge

_ZN6google8protobuf2io12_GLOBAL__N_114close_no_eintrEi.exit._ZN6google8protobuf2io12_GLOBAL__N_114close_no_eintrEi.exit.thread_crit_edge: ; preds = %_ZN6google8protobuf2io12_GLOBAL__N_114close_no_eintrEi.exit
  %.pre = tail call ptr @__errno_location() #13
  br label %_ZN6google8protobuf2io12_GLOBAL__N_114close_no_eintrEi.exit.thread

_ZN6google8protobuf2io12_GLOBAL__N_114close_no_eintrEi.exit.thread: ; preds = %16, %_ZN6google8protobuf2io12_GLOBAL__N_114close_no_eintrEi.exit._ZN6google8protobuf2io12_GLOBAL__N_114close_no_eintrEi.exit.thread_crit_edge
  %.pre-phi = phi ptr [ %.pre, %_ZN6google8protobuf2io12_GLOBAL__N_114close_no_eintrEi.exit._ZN6google8protobuf2io12_GLOBAL__N_114close_no_eintrEi.exit.thread_crit_edge ], [ %17, %16 ]
  %20 = load i32, ptr %.pre-phi, align 4
  %21 = getelementptr inbounds i8, ptr %0, i64 16
  store i32 %20, ptr %21, align 8
  br label %24

22:                                               ; preds = %9, %7
  %23 = landingpad { ptr, i32 }
          cleanup
  call void @_ZN6google8protobuf8internal10LogMessageD1Ev(ptr noundef nonnull align 8 dereferenceable(56) %2) #12
  resume { ptr, i32 } %23

24:                                               ; preds = %_ZN6google8protobuf2io12_GLOBAL__N_114close_no_eintrEi.exit, %_ZN6google8protobuf2io12_GLOBAL__N_114close_no_eintrEi.exit.thread
  %.not8 = phi i1 [ true, %_ZN6google8protobuf2io12_GLOBAL__N_114close_no_eintrEi.exit ], [ false, %_ZN6google8protobuf2io12_GLOBAL__N_114close_no_eintrEi.exit.thread ]
  ret i1 %.not8
}